; Function Attrs: nounwind sspstrong uwtable
define internal i64 @thread_s_new(i32 noundef %0, ptr noundef %1, i64 noundef %2) #0 {
  %4 = tail call i64 @rb_thread_alloc(i64 noundef %2) #17
  %5 = load ptr, ptr @ruby_single_main_ractor, align 8, !tbaa !146
  %.not.i.i = icmp eq ptr %5, null
  br i1 %.not.i.i, label %6, label %rb_current_ractor.exit

6:                                                ; preds = %3
  %7 = tail call align 8 ptr @llvm.threadlocal.address.p0(ptr align 8 @ruby_current_ec)
  %8 = load ptr, ptr %7, align 8, !tbaa !148
  %9 = getelementptr i8, ptr %8, i64 48
  %.val.i.i = load ptr, ptr %9, align 8, !tbaa !7, !nonnull !103, !noundef !103
  %10 = getelementptr inbounds nuw i8, ptr %.val.i.i, i64 24
  %11 = load ptr, ptr %10, align 8, !tbaa !52
  br label %rb_current_ractor.exit

rb_current_ractor.exit:                           ; preds = %3, %6
  %.0.i.i = phi ptr [ %5, %3 ], [ %11, %6 ]
  %12 = getelementptr inbounds nuw i8, ptr %.0.i.i, i64 392
  %13 = load ptr, ptr %12, align 8, !tbaa !207
  %14 = getelementptr inbounds nuw i8, ptr %13, i64 240
  %15 = load i8, ptr %14, align 8
  %16 = and i8 %15, 3
  %17 = icmp eq i8 %16, 3
  br i1 %17, label %18, label %20

18:                                               ; preds = %rb_current_ractor.exit
  %19 = load i64, ptr @rb_eThreadError, align 8, !tbaa !145
  tail call void (i64, ptr, ...) @rb_raise(i64 noundef %19, ptr noundef nonnull @.str.224) #38
  unreachable

20:                                               ; preds = %rb_current_ractor.exit
  %21 = tail call i32 @rb_keyword_given_p() #17
  %22 = icmp ne i32 %21, 0
  %23 = zext i1 %22 to i32
  tail call void @rb_obj_call_init_kw(i64 noundef %4, i32 noundef %0, ptr noundef %1, i32 noundef %23) #17
  %24 = tail call ptr @rb_check_typeddata(i64 noundef %4, ptr noundef nonnull @ruby_threadptr_data_type) #17
  %25 = getelementptr inbounds nuw i8, ptr %24, i64 408
  %26 = load i32, ptr %25, align 8, !tbaa !230
  %.not = icmp eq i32 %26, 0
  br i1 %.not, label %27, label %29

27:                                               ; preds = %20
  %28 = load i64, ptr @rb_eThreadError, align 8, !tbaa !145
  tail call void (i64, ptr, ...) @rb_raise(i64 noundef %28, ptr noundef nonnull @.str.225, i64 noundef %2) #38
  unreachable

29:                                               ; preds = %20
  ret i64 %4
}